; Function Attrs: mustprogress nofree norecurse nosync nounwind willreturn memory(none) uwtable
define internal noundef double @trc_smpte240M(double noundef %0) #0 {
  %2 = fcmp nsz olt double %0, 0.000000e+00
  br i1 %2, label %10, label %3

3:                                                ; preds = %1
  %4 = fcmp nsz olt double %0, 2.280000e-02
  br i1 %4, label %5, label %7

5:                                                ; preds = %3
  %6 = fmul nsz double %0, 4.000000e+00
  br label %10

7:                                                ; preds = %3
  %8 = tail call nsz double @llvm.pow.f64(double %0, double 4.500000e-01)
  %9 = tail call nsz double @llvm.fmuladd.f64(double %8, double 1.111500e+00, double 0xBFBC8B4395810620)
  br label %10

10:                                               ; preds = %5, %7, %1
  %11 = phi nsz double [ 0.000000e+00, %1 ], [ %6, %5 ], [ %9, %7 ]
  ret double %11
}